; Function Attrs: nounwind uwtable
define double @Abc_NtkConstraintRatio(ptr noundef readonly captures(none) %0, ptr noundef readnone captures(none) %1) local_unnamed_addr #0 {
  %3 = tail call ptr @Abc_NtkAigForConstraints(ptr noundef %0, ptr poison)
  %4 = tail call ptr @Fra_SmlSimulateComb(ptr noundef %3, i32 noundef 256, i32 noundef 0) #3
  %5 = getelementptr i8, ptr %3, i64 24
  %.val = load ptr, ptr %5, align 8
  %6 = getelementptr i8, ptr %.val, i64 8
  %.val.val = load ptr, ptr %6, align 8
  %7 = load ptr, ptr %.val.val, align 8
  %8 = tail call i32 @Fra_SmlNodeCountOnes(ptr noundef %4, ptr noundef %7) #3
  tail call void @Aig_ManStop(ptr noundef %3) #3
  tail call void @Fra_SmlStop(ptr noundef %4) #3
  %9 = sitofp i32 %8 to double
  %10 = fmul double %9, 0x3F20000000000000
  ret double %10
}